Certificate:
    Data:
        Version: 3 (0x2)
        Serial Number: 3 (0x3)
        Signature Algorithm: sha1WithRSAEncryption
        Issuer: DC=com, DC=demodomain, O=CA Demo Corp, OU=december_2021c, CN=CA Demo
        Validity
            Not Before: Feb 21 20:06:45 2022 GMT
            Not After : Feb 22 20:06:45 2032 GMT
        Subject: DC=com, DC=demodomain, O=CA Demo Corp, OU=december_2021c, CN=Document CA Demo
        Subject Public Key Info:
            Public Key Algorithm: rsaEncryption
                RSA Public-Key: (2048 bit)
                Modulus:
                    00:bb:46:ad:9a:66:8e:e1:83:61:dd:b2:db:37:34:
                    2f:b4:02:cf:31:74:14:31:85:93:23:e2:a5:c2:99:
                    51:3e:b8:8c:18:aa:ca:23:34:52:33:72:16:54:9a:
                    f9:14:ce:72:8f:b8:a5:15:7e:4a:84:44:7e:d8:a2:
                    69:cc:ff:52:eb:d5:ff:1c:92:3a:05:6f:37:7c:e0:
                    4a:db:41:65:28:bc:74:84:3e:e8:7b:59:0d:43:7a:
                    7a:2e:15:79:48:04:19:93:ef:94:8d:9f:40:31:93:
                    b9:83:a4:91:63:12:da:52:29:12:45:07:66:fe:06:
                    b9:11:5f:86:ae:e8:d8:53:17:0e:e2:e5:27:d1:2b:
                    b8:89:c8:bf:86:75:8b:f5:96:84:84:de:0f:55:97:
                    9d:e8:ff:40:3a:06:b2:26:67:b1:81:20:da:55:fd:
                    23:50:f3:b4:d8:92:d3:f3:69:18:72:f7:94:a1:ee:
                    02:89:4e:f2:b4:64:c5:03:83:88:6b:78:0c:13:a5:
                    da:ec:f6:56:2e:da:f4:db:78:57:cd:eb:11:b9:73:
                    85:b8:86:cc:16:d4:5f:aa:6b:50:e5:8f:51:0e:4d:
                    48:e1:03:c9:52:69:1d:d5:6f:4f:f0:e3:53:79:c2:
                    bd:69:1d:cf:98:1f:69:08:09:07:73:ec:e9:f3:4d:
                    4a:b3
                Exponent: 65537 (0x10001)
        X509v3 extensions:
            X509v3 Key Usage: critical
                Certificate Sign, CRL Sign
            X509v3 Basic Constraints: critical
                CA:TRUE, pathlen:0
            X509v3 Subject Key Identifier: 
                FF:CE:A2:EB:81:1F:C8:5A:5C:2E:09:05:98:58:45:14:2E:D3:35:4A
            X509v3 Authority Key Identifier: 
                keyid:D9:4C:CA:9E:81:7E:95:7B:FF:37:B8:4B:82:8F:8A:5F:F3:C4:D9:BB

    Signature Algorithm: sha1WithRSAEncryption
         17:5b:13:f3:2f:09:aa:0b:b5:41:f5:ce:dc:cf:fc:47:f3:de:
         ea:0c:11:01:5b:c1:c9:d5:21:f7:b8:5f:7b:8e:35:b1:08:3a:
         c8:e5:98:93:d1:02:8b:f9:44:e2:29:68:27:2f:ac:9d:f8:43:
         a6:be:a6:a2:03:49:fc:2d:ce:db:1d:c6:e2:28:0f:9b:43:95:
         ef:01:22:68:ca:5f:61:ed:be:cd:df:63:a3:35:4a:42:a3:d3:
         67:4a:7a:13:f2:06:62:2a:1b:c4:18:d9:40:43:9c:0b:12:55:
         14:41:eb:0a:f4:1f:06:21:d4:72:e1:b0:5b:08:80:34:89:b9:
         20:06:e8:f6:cf:6d:bb:52:81:ba:eb:69:7e:70:b1:7c:78:e1:
         29:c1:65:15:7d:78:06:62:83:69:ae:88:52:39:f5:6f:20:6d:
         9d:c4:95:12:9f:3f:ff:42:e6:ab:e4:c5:2a:82:3f:9d:ae:e9:
         c8:5b:e4:fe:7b:63:2f:fc:df:e5:5a:02:8b:b8:e0:20:5b:99:
         c0:16:b1:6b:6f:5b:78:fc:17:3f:d4:32:0f:26:ec:9a:2a:47:
         6d:27:c3:a9:7e:24:79:e7:7e:ab:d5:48:32:8d:22:6c:cf:df:
         01:8b:4d:eb:c8:12:3d:eb:db:84:dc:ec:62:64:47:81:a9:65:
         0b:cd:38:bc
-----BEGIN CERTIFICATE-----
MIID0DCCArigAwIBAgIBAzANBgkqhkiG9w0BAQUFADBzMRMwEQYKCZImiZPyLGQB
GRYDY29tMRowGAYKCZImiZPyLGQBGRYKZGVtb2RvbWFpbjEVMBMGA1UECgwMQ0Eg
RGVtbyBDb3JwMRcwFQYDVQQLDA5kZWNlbWJlcl8yMDIxYzEQMA4GA1UEAwwHQ0Eg
RGVtbzAeFw0yMjAyMjEyMDA2NDVaFw0zMjAyMjIyMDA2NDVaMHwxEzARBgoJkiaJ
k/IsZAEZFgNjb20xGjAYBgoJkiaJk/IsZAEZFgpkZW1vZG9tYWluMRUwEwYDVQQK
DAxDQSBEZW1vIENvcnAxFzAVBgNVBAsMDmRlY2VtYmVyXzIwMjFjMRkwFwYDVQQD
DBBEb2N1bWVudCBDQSBEZW1vMIIBIjANBgkqhkiG9w0BAQEFAAOCAQ8AMIIBCgKC
AQEAu0atmmaO4YNh3bLbNzQvtALPMXQUMYWTI+KlwplRPriMGKrKIzRSM3IWVJr5
FM5yj7ilFX5KhER+2KJpzP9S69X/HJI6BW83fOBK20FlKLx0hD7oe1kNQ3p6LhV5
SAQZk++UjZ9AMZO5g6SRYxLaUikSRQdm/ga5EV+GrujYUxcO4uUn0Su4ici/hnWL
9ZaEhN4PVZed6P9AOgayJmexgSDaVf0jUPO02JLT82kYcveUoe4CiU7ytGTFA4OI
a3gME6Xa7PZWLtr023hXzesRuXOFuIbMFtRfqmtQ5Y9RDk1I4QPJUmkd1W9P8ONT
ecK9aR3PmB9pCAkHc+zp801KswIDAQABo2YwZDAOBgNVHQ8BAf8EBAMCAQYwEgYD
VR0TAQH/BAgwBgEB/wIBADAdBgNVHQ4EFgQU/86i64EfyFpcLgkFmFhFFC7TNUow
HwYDVR0jBBgwFoAU2UzKnoF+lXv/N7hLgo+KX/PE2bswDQYJKoZIhvcNAQEFBQAD
ggEBABdbE/MvCaoLtUH1ztzP/Efz3uoMEQFbwcnVIfe4X3uONbEIOsjlmJPRAov5
ROIpaCcvrJ34Q6a+pqIDSfwtztsdxuIoD5tDle8BImjKX2Htvs3fY6M1SkKj02dK
ehPyBmIqG8QY2UBDnAsSVRRB6wr0HwYh1HLhsFsIgDSJuSAG6PbPbbtSgbrraX5w
sXx44SnBZRV9eAZig2muiFI59W8gbZ3ElRKfP/9C5qvkxSqCP52u6chb5P57Yy/8
3+VaAou44CBbmcAWsWtvW3j8Fz/UMg8m7JoqR20nw6l+JHnnfqvVSDKNImzP3wGL
TevIEj3r24Tc7GJkR4GpZQvNOLw=
-----END CERTIFICATE-----
Certificate:
    Data:
        Version: 3 (0x2)
        Serial Number: 1 (0x1)
        Signature Algorithm: sha1WithRSAEncryption
        Issuer: DC=com, DC=demodomain, O=CA Demo Corp, OU=december_2021c, CN=CA Demo
        Validity
            Not Before: Feb 21 20:06:44 2022 GMT
            Not After : Feb 22 20:06:44 2032 GMT
        Subject: DC=com, DC=demodomain, O=CA Demo Corp, OU=december_2021c, CN=CA Demo
        Subject Public Key Info:
            Public Key Algorithm: rsaEncryption
                RSA Public-Key: (2048 bit)
                Modulus:
                    00:b1:ee:61:24:08:f5:9d:06:c4:37:e3:63:4f:52:
                    bf:08:18:0e:2e:68:8a:53:1c:58:7f:98:db:70:b0:
                    90:d1:d3:5c:84:bb:16:a5:46:d8:7e:21:e7:27:08:
                    8d:81:ee:31:61:ca:ed:1c:6d:af:b5:a1:9b:ad:52:
                    f9:50:f9:2f:17:0d:fb:6f:4a:0e:67:a3:6c:e5:a7:
                    62:3e:33:87:6b:90:c7:50:cf:46:27:5c:03:5d:c7:
                    a3:6d:a5:55:8a:9b:ea:1f:a5:9c:e8:49:eb:dc:9a:
                    30:97:1e:d1:f5:1e:89:55:1b:9c:6d:1f:14:dd:71:
                    99:ee:0a:82:4f:e9:6d:7f:52:55:8e:bb:33:d6:68:
                    26:08:12:3b:6a:e7:38:ac:ee:68:e8:b6:c4:c9:b4:
                    f8:2a:2f:0a:e9:f1:5b:30:81:de:4c:9e:dc:4e:ae:
                    db:97:d5:71:88:a5:e4:df:e8:b3:94:ea:f0:be:ce:
                    87:26:3d:d1:84:89:fa:b2:11:b4:5e:d7:e2:6f:46:
                    c0:1f:3b:a6:8d:16:6f:26:f8:5e:05:74:ad:5a:c7:
                    51:48:5a:8e:ee:a2:4a:e2:8b:c1:16:cf:21:51:cf:
                    e6:19:09:fb:d4:43:7e:7b:76:4b:46:fc:3f:32:2a:
                    32:b2:d5:9f:4c:81:3f:7d:d4:cd:2a:86:cd:3b:bc:
                    7e:01
                Exponent: 65537 (0x10001)
        X509v3 extensions:
            X509v3 Key Usage: critical
                Certificate Sign, CRL Sign
            X509v3 Basic Constraints: critical
                CA:TRUE, pathlen:0
            X509v3 Subject Key Identifier: 
                D9:4C:CA:9E:81:7E:95:7B:FF:37:B8:4B:82:8F:8A:5F:F3:C4:D9:BB
            X509v3 Authority Key Identifier: 
                keyid:D9:4C:CA:9E:81:7E:95:7B:FF:37:B8:4B:82:8F:8A:5F:F3:C4:D9:BB

    Signature Algorithm: sha1WithRSAEncryption
         2e:15:40:ca:d6:1a:9d:41:42:bb:05:5f:d1:2f:46:8a:f2:1e:
         9d:da:a4:f5:15:ef:4a:b7:06:14:84:06:e7:65:4f:ed:ef:a3:
         43:0d:2b:29:63:d7:55:29:3f:44:f4:04:8c:e5:4a:eb:fd:70:
         3d:6b:12:f6:74:6b:e6:6d:6b:34:32:3a:3f:d6:38:71:bb:e7:
         d3:a1:5c:62:07:d0:4c:8c:3b:4f:34:8f:8f:f2:eb:f2:04:44:
         7d:62:75:35:e4:da:82:28:b8:33:25:09:45:cc:3f:c0:65:ae:
         7b:92:b1:43:c0:e9:d8:a4:95:90:3a:a6:ab:21:21:fa:10:1f:
         1a:fe:48:78:05:4e:a8:c4:dd:db:0d:de:a4:86:81:b9:d3:c1:
         17:8a:b3:c9:2d:6e:21:3c:d0:31:9a:a9:72:3f:25:bd:43:b1:
         19:49:69:77:46:c6:4c:67:89:85:b0:ba:7f:ee:84:e4:af:36:
         02:f4:dc:dc:9a:8c:13:39:b5:3e:f1:b1:bf:3a:a1:40:55:39:
         72:3b:48:6a:8e:9c:70:3e:67:42:ce:5f:15:a9:dd:52:7b:66:
         2c:67:57:f1:5c:7c:96:ce:94:eb:ec:de:e7:46:a6:d7:f6:08:
         fd:d7:78:94:94:f8:73:55:06:3e:ea:19:05:1b:56:44:ec:48:
         64:1a:3e:fb
-----BEGIN CERTIFICATE-----
MIIDxzCCAq+gAwIBAgIBATANBgkqhkiG9w0BAQUFADBzMRMwEQYKCZImiZPyLGQB
GRYDY29tMRowGAYKCZImiZPyLGQBGRYKZGVtb2RvbWFpbjEVMBMGA1UECgwMQ0Eg
RGVtbyBDb3JwMRcwFQYDVQQLDA5kZWNlbWJlcl8yMDIxYzEQMA4GA1UEAwwHQ0Eg
RGVtbzAeFw0yMjAyMjEyMDA2NDRaFw0zMjAyMjIyMDA2NDRaMHMxEzARBgoJkiaJ
k/IsZAEZFgNjb20xGjAYBgoJkiaJk/IsZAEZFgpkZW1vZG9tYWluMRUwEwYDVQQK
DAxDQSBEZW1vIENvcnAxFzAVBgNVBAsMDmRlY2VtYmVyXzIwMjFjMRAwDgYDVQQD
DAdDQSBEZW1vMIIBIjANBgkqhkiG9w0BAQEFAAOCAQ8AMIIBCgKCAQEAse5hJAj1
nQbEN+NjT1K/CBgOLmiKUxxYf5jbcLCQ0dNchLsWpUbYfiHnJwiNge4xYcrtHG2v
taGbrVL5UPkvFw37b0oOZ6Ns5adiPjOHa5DHUM9GJ1wDXcejbaVVipvqH6Wc6Enr
3Jowlx7R9R6JVRucbR8U3XGZ7gqCT+ltf1JVjrsz1mgmCBI7auc4rO5o6LbEybT4
Ki8K6fFbMIHeTJ7cTq7bl9VxiKXk3+izlOrwvs6HJj3RhIn6shG0Xtfib0bAHzum
jRZvJvheBXStWsdRSFqO7qJK4ovBFs8hUc/mGQn71EN+e3ZLRvw/MioystWfTIE/
fdTNKobNO7x+AQIDAQABo2YwZDAOBgNVHQ8BAf8EBAMCAQYwEgYDVR0TAQH/BAgw
BgEB/wIBADAdBgNVHQ4EFgQU2UzKnoF+lXv/N7hLgo+KX/PE2bswHwYDVR0jBBgw
FoAU2UzKnoF+lXv/N7hLgo+KX/PE2bswDQYJKoZIhvcNAQEFBQADggEBAC4VQMrW
Gp1BQrsFX9EvRoryHp3apPUV70q3BhSEBudlT+3vo0MNKylj11UpP0T0BIzlSuv9
cD1rEvZ0a+ZtazQyOj/WOHG759OhXGIH0EyMO080j4/y6/IERH1idTXk2oIouDMl
CUXMP8BlrnuSsUPA6diklZA6pqshIfoQHxr+SHgFTqjE3dsN3qSGgbnTwReKs8kt
biE80DGaqXI/Jb1DsRlJaXdGxkxniYWwun/uhOSvNgL03NyajBM5tT7xsb86oUBV
OXI7SGqOnHA+Z0LOXxWp3VJ7ZixnV/FcfJbOlOvs3udGptf2CP3XeJSU+HNVBj7q
GQUbVkTsSGQaPvs=
-----END CERTIFICATE-----
