Certificate:
    Data:
        Version: 3 (0x2)
        Serial Number: 2 (0x2)
        Signature Algorithm: sha1WithRSAEncryption
        Issuer: DC=com, DC=demodomain, O=CA Demo Corp, OU=december_2021c, CN=CA Demo
        Validity
            Not Before: Feb 21 20:06:45 2022 GMT
            Not After : Feb 22 20:06:45 2032 GMT
        Subject: DC=com, DC=demodomain, O=CA Demo Corp, OU=december_2021c, CN=Server CA Demo
        Subject Public Key Info:
            Public Key Algorithm: rsaEncryption
                RSA Public-Key: (2048 bit)
                Modulus:
                    00:a9:62:9c:bb:8f:11:c5:a2:3a:24:c3:6b:90:58:
                    b7:95:78:3a:3c:f5:16:6a:89:40:c4:fb:7d:71:83:
                    c7:9a:8b:d1:03:70:ba:85:bf:ec:99:7f:68:c9:65:
                    d0:e5:1a:bc:1c:1d:36:a8:34:c7:7e:cc:60:48:e7:
                    7b:2f:9f:d9:91:c8:25:cd:19:5c:9b:c5:f0:d7:84:
                    97:a3:d6:be:ad:68:85:ec:f5:9c:8d:b4:e7:57:03:
                    a3:8a:f7:b2:e9:fa:85:e1:39:db:8e:c3:9c:8b:ea:
                    90:18:bc:ac:cb:94:19:70:64:90:3b:31:17:a5:a0:
                    99:ed:8e:69:50:b9:6a:23:b5:96:17:1c:da:ae:f4:
                    0c:ef:ae:2c:21:cb:aa:72:da:47:df:c5:c8:bf:f2:
                    47:be:54:e7:d4:10:5b:28:5b:45:8d:13:a7:07:82:
                    2e:9e:23:23:77:7d:99:0c:74:3c:ce:40:de:34:5d:
                    17:67:1e:9a:41:07:61:d5:7e:48:3f:91:2b:f2:32:
                    d0:bd:0a:12:9c:0e:a2:c6:fd:a6:84:b1:f6:71:71:
                    7c:14:0b:ab:e5:c8:fd:a7:89:9a:31:ce:77:6b:64:
                    e6:d9:5e:6a:82:d8:09:a4:24:d8:f0:7c:29:3f:41:
                    71:6a:17:3f:3e:7c:41:89:35:2b:c6:2b:1f:48:55:
                    76:c7
                Exponent: 65537 (0x10001)
        X509v3 extensions:
            X509v3 Key Usage: critical
                Certificate Sign, CRL Sign
            X509v3 Basic Constraints: critical
                CA:TRUE, pathlen:0
            X509v3 Subject Key Identifier: 
                59:B5:C0:44:7C:E6:1F:A1:6A:21:B2:F3:D1:03:E7:78:AF:2A:26:F8
            X509v3 Authority Key Identifier: 
                keyid:D9:4C:CA:9E:81:7E:95:7B:FF:37:B8:4B:82:8F:8A:5F:F3:C4:D9:BB

    Signature Algorithm: sha1WithRSAEncryption
         05:68:92:8b:f6:12:cf:76:62:95:6e:65:cf:27:ae:28:a0:8c:
         63:62:52:ee:74:98:97:58:26:91:f6:03:44:59:eb:2e:20:ec:
         55:00:8b:a7:ab:73:ae:26:bf:22:4d:f9:0d:cd:38:c8:84:72:
         a0:11:91:fa:bf:59:1a:95:8f:4e:b0:68:db:c1:ac:b2:41:55:
         db:74:b7:91:38:80:c5:ff:17:4c:81:23:e0:75:31:f1:57:74:
         03:2c:1e:f3:48:d3:26:cf:2e:27:b6:65:a4:c3:05:1b:ae:f5:
         51:f0:cd:e8:96:22:c8:81:c5:ed:bb:89:17:f9:92:67:60:4b:
         94:34:e3:28:a4:36:7f:04:a5:86:65:79:f6:fa:c9:43:08:20:
         11:51:e6:c5:80:08:62:f2:b5:f4:fd:4f:e4:eb:d1:bb:aa:cf:
         3f:2d:5f:62:2a:71:4d:33:af:f6:e8:5f:a5:59:cd:9e:ca:28:
         1d:87:b8:2b:3c:91:63:73:6e:ec:36:f0:25:4f:fd:83:39:3e:
         b8:79:20:40:e4:3b:2c:5e:6a:bb:7f:7e:53:93:20:d2:85:73:
         6b:6c:fa:35:a7:68:c9:21:f9:99:fa:ad:c1:69:90:27:f9:f7:
         3b:96:e6:6c:c7:01:1c:32:89:6d:39:bd:72:1c:b6:9f:ce:b3:
         91:6b:f8:4f
-----BEGIN CERTIFICATE-----
MIIDzjCCAragAwIBAgIBAjANBgkqhkiG9w0BAQUFADBzMRMwEQYKCZImiZPyLGQB
GRYDY29tMRowGAYKCZImiZPyLGQBGRYKZGVtb2RvbWFpbjEVMBMGA1UECgwMQ0Eg
RGVtbyBDb3JwMRcwFQYDVQQLDA5kZWNlbWJlcl8yMDIxYzEQMA4GA1UEAwwHQ0Eg
RGVtbzAeFw0yMjAyMjEyMDA2NDVaFw0zMjAyMjIyMDA2NDVaMHoxEzARBgoJkiaJ
k/IsZAEZFgNjb20xGjAYBgoJkiaJk/IsZAEZFgpkZW1vZG9tYWluMRUwEwYDVQQK
DAxDQSBEZW1vIENvcnAxFzAVBgNVBAsMDmRlY2VtYmVyXzIwMjFjMRcwFQYDVQQD
DA5TZXJ2ZXIgQ0EgRGVtbzCCASIwDQYJKoZIhvcNAQEBBQADggEPADCCAQoCggEB
AKlinLuPEcWiOiTDa5BYt5V4Ojz1FmqJQMT7fXGDx5qL0QNwuoW/7Jl/aMll0OUa
vBwdNqg0x37MYEjney+f2ZHIJc0ZXJvF8NeEl6PWvq1ohez1nI2051cDo4r3sun6
heE5247DnIvqkBi8rMuUGXBkkDsxF6Wgme2OaVC5aiO1lhcc2q70DO+uLCHLqnLa
R9/FyL/yR75U59QQWyhbRY0TpweCLp4jI3d9mQx0PM5A3jRdF2cemkEHYdV+SD+R
K/Iy0L0KEpwOosb9poSx9nFxfBQLq+XI/aeJmjHOd2tk5tleaoLYCaQk2PB8KT9B
cWoXPz58QYk1K8YrH0hVdscCAwEAAaNmMGQwDgYDVR0PAQH/BAQDAgEGMBIGA1Ud
EwEB/wQIMAYBAf8CAQAwHQYDVR0OBBYEFFm1wER85h+haiGy89ED53ivKib4MB8G
A1UdIwQYMBaAFNlMyp6BfpV7/ze4S4KPil/zxNm7MA0GCSqGSIb3DQEBBQUAA4IB
AQAFaJKL9hLPdmKVbmXPJ64ooIxjYlLudJiXWCaR9gNEWesuIOxVAIunq3OuJr8i
TfkNzTjIhHKgEZH6v1kalY9OsGjbwayyQVXbdLeROIDF/xdMgSPgdTHxV3QDLB7z
SNMmzy4ntmWkwwUbrvVR8M3oliLIgcXtu4kX+ZJnYEuUNOMopDZ/BKWGZXn2+slD
CCARUebFgAhi8rX0/U/k69G7qs8/LV9iKnFNM6/26F+lWc2eyigdh7grPJFjc27s
NvAlT/2DOT64eSBA5DssXmq7f35TkyDShXNrbPo1p2jJIfmZ+q3BaZAn+fc7luZs
xwEcMoltOb1yHLafzrORa/hP
-----END CERTIFICATE-----
Certificate:
    Data:
        Version: 3 (0x2)
        Serial Number: 1 (0x1)
        Signature Algorithm: sha1WithRSAEncryption
        Issuer: DC=com, DC=demodomain, O=CA Demo Corp, OU=december_2021c, CN=CA Demo
        Validity
            Not Before: Feb 21 20:06:44 2022 GMT
            Not After : Feb 22 20:06:44 2032 GMT
        Subject: DC=com, DC=demodomain, O=CA Demo Corp, OU=december_2021c, CN=CA Demo
        Subject Public Key Info:
            Public Key Algorithm: rsaEncryption
                RSA Public-Key: (2048 bit)
                Modulus:
                    00:b1:ee:61:24:08:f5:9d:06:c4:37:e3:63:4f:52:
                    bf:08:18:0e:2e:68:8a:53:1c:58:7f:98:db:70:b0:
                    90:d1:d3:5c:84:bb:16:a5:46:d8:7e:21:e7:27:08:
                    8d:81:ee:31:61:ca:ed:1c:6d:af:b5:a1:9b:ad:52:
                    f9:50:f9:2f:17:0d:fb:6f:4a:0e:67:a3:6c:e5:a7:
                    62:3e:33:87:6b:90:c7:50:cf:46:27:5c:03:5d:c7:
                    a3:6d:a5:55:8a:9b:ea:1f:a5:9c:e8:49:eb:dc:9a:
                    30:97:1e:d1:f5:1e:89:55:1b:9c:6d:1f:14:dd:71:
                    99:ee:0a:82:4f:e9:6d:7f:52:55:8e:bb:33:d6:68:
                    26:08:12:3b:6a:e7:38:ac:ee:68:e8:b6:c4:c9:b4:
                    f8:2a:2f:0a:e9:f1:5b:30:81:de:4c:9e:dc:4e:ae:
                    db:97:d5:71:88:a5:e4:df:e8:b3:94:ea:f0:be:ce:
                    87:26:3d:d1:84:89:fa:b2:11:b4:5e:d7:e2:6f:46:
                    c0:1f:3b:a6:8d:16:6f:26:f8:5e:05:74:ad:5a:c7:
                    51:48:5a:8e:ee:a2:4a:e2:8b:c1:16:cf:21:51:cf:
                    e6:19:09:fb:d4:43:7e:7b:76:4b:46:fc:3f:32:2a:
                    32:b2:d5:9f:4c:81:3f:7d:d4:cd:2a:86:cd:3b:bc:
                    7e:01
                Exponent: 65537 (0x10001)
        X509v3 extensions:
            X509v3 Key Usage: critical
                Certificate Sign, CRL Sign
            X509v3 Basic Constraints: critical
                CA:TRUE, pathlen:0
            X509v3 Subject Key Identifier: 
                D9:4C:CA:9E:81:7E:95:7B:FF:37:B8:4B:82:8F:8A:5F:F3:C4:D9:BB
            X509v3 Authority Key Identifier: 
                keyid:D9:4C:CA:9E:81:7E:95:7B:FF:37:B8:4B:82:8F:8A:5F:F3:C4:D9:BB

    Signature Algorithm: sha1WithRSAEncryption
         2e:15:40:ca:d6:1a:9d:41:42:bb:05:5f:d1:2f:46:8a:f2:1e:
         9d:da:a4:f5:15:ef:4a:b7:06:14:84:06:e7:65:4f:ed:ef:a3:
         43:0d:2b:29:63:d7:55:29:3f:44:f4:04:8c:e5:4a:eb:fd:70:
         3d:6b:12:f6:74:6b:e6:6d:6b:34:32:3a:3f:d6:38:71:bb:e7:
         d3:a1:5c:62:07:d0:4c:8c:3b:4f:34:8f:8f:f2:eb:f2:04:44:
         7d:62:75:35:e4:da:82:28:b8:33:25:09:45:cc:3f:c0:65:ae:
         7b:92:b1:43:c0:e9:d8:a4:95:90:3a:a6:ab:21:21:fa:10:1f:
         1a:fe:48:78:05:4e:a8:c4:dd:db:0d:de:a4:86:81:b9:d3:c1:
         17:8a:b3:c9:2d:6e:21:3c:d0:31:9a:a9:72:3f:25:bd:43:b1:
         19:49:69:77:46:c6:4c:67:89:85:b0:ba:7f:ee:84:e4:af:36:
         02:f4:dc:dc:9a:8c:13:39:b5:3e:f1:b1:bf:3a:a1:40:55:39:
         72:3b:48:6a:8e:9c:70:3e:67:42:ce:5f:15:a9:dd:52:7b:66:
         2c:67:57:f1:5c:7c:96:ce:94:eb:ec:de:e7:46:a6:d7:f6:08:
         fd:d7:78:94:94:f8:73:55:06:3e:ea:19:05:1b:56:44:ec:48:
         64:1a:3e:fb
-----BEGIN CERTIFICATE-----
MIIDxzCCAq+gAwIBAgIBATANBgkqhkiG9w0BAQUFADBzMRMwEQYKCZImiZPyLGQB
GRYDY29tMRowGAYKCZImiZPyLGQBGRYKZGVtb2RvbWFpbjEVMBMGA1UECgwMQ0Eg
RGVtbyBDb3JwMRcwFQYDVQQLDA5kZWNlbWJlcl8yMDIxYzEQMA4GA1UEAwwHQ0Eg
RGVtbzAeFw0yMjAyMjEyMDA2NDRaFw0zMjAyMjIyMDA2NDRaMHMxEzARBgoJkiaJ
k/IsZAEZFgNjb20xGjAYBgoJkiaJk/IsZAEZFgpkZW1vZG9tYWluMRUwEwYDVQQK
DAxDQSBEZW1vIENvcnAxFzAVBgNVBAsMDmRlY2VtYmVyXzIwMjFjMRAwDgYDVQQD
DAdDQSBEZW1vMIIBIjANBgkqhkiG9w0BAQEFAAOCAQ8AMIIBCgKCAQEAse5hJAj1
nQbEN+NjT1K/CBgOLmiKUxxYf5jbcLCQ0dNchLsWpUbYfiHnJwiNge4xYcrtHG2v
taGbrVL5UPkvFw37b0oOZ6Ns5adiPjOHa5DHUM9GJ1wDXcejbaVVipvqH6Wc6Enr
3Jowlx7R9R6JVRucbR8U3XGZ7gqCT+ltf1JVjrsz1mgmCBI7auc4rO5o6LbEybT4
Ki8K6fFbMIHeTJ7cTq7bl9VxiKXk3+izlOrwvs6HJj3RhIn6shG0Xtfib0bAHzum
jRZvJvheBXStWsdRSFqO7qJK4ovBFs8hUc/mGQn71EN+e3ZLRvw/MioystWfTIE/
fdTNKobNO7x+AQIDAQABo2YwZDAOBgNVHQ8BAf8EBAMCAQYwEgYDVR0TAQH/BAgw
BgEB/wIBADAdBgNVHQ4EFgQU2UzKnoF+lXv/N7hLgo+KX/PE2bswHwYDVR0jBBgw
FoAU2UzKnoF+lXv/N7hLgo+KX/PE2bswDQYJKoZIhvcNAQEFBQADggEBAC4VQMrW
Gp1BQrsFX9EvRoryHp3apPUV70q3BhSEBudlT+3vo0MNKylj11UpP0T0BIzlSuv9
cD1rEvZ0a+ZtazQyOj/WOHG759OhXGIH0EyMO080j4/y6/IERH1idTXk2oIouDMl
CUXMP8BlrnuSsUPA6diklZA6pqshIfoQHxr+SHgFTqjE3dsN3qSGgbnTwReKs8kt
biE80DGaqXI/Jb1DsRlJaXdGxkxniYWwun/uhOSvNgL03NyajBM5tT7xsb86oUBV
OXI7SGqOnHA+Z0LOXxWp3VJ7ZixnV/FcfJbOlOvs3udGptf2CP3XeJSU+HNVBj7q
GQUbVkTsSGQaPvs=
-----END CERTIFICATE-----
