Certificate:
    Data:
        Version: 3 (0x2)
        Serial Number: 2 (0x2)
        Signature Algorithm: sha1WithRSAEncryption
        Issuer: DC=com, DC=demodomain, O=CA Demo Corp, OU=december_2021c, CN=CA Demo
        Validity
            Not Before: Feb 21 20:06:45 2022 GMT
            Not After : Feb 22 20:06:45 2032 GMT
        Subject: DC=com, DC=demodomain, O=CA Demo Corp, OU=december_2021c, CN=Server CA Demo
        Subject Public Key Info:
            Public Key Algorithm: rsaEncryption
                RSA Public-Key: (2048 bit)
                Modulus:
                    00:a9:62:9c:bb:8f:11:c5:a2:3a:24:c3:6b:90:58:
                    b7:95:78:3a:3c:f5:16:6a:89:40:c4:fb:7d:71:83:
                    c7:9a:8b:d1:03:70:ba:85:bf:ec:99:7f:68:c9:65:
                    d0:e5:1a:bc:1c:1d:36:a8:34:c7:7e:cc:60:48:e7:
                    7b:2f:9f:d9:91:c8:25:cd:19:5c:9b:c5:f0:d7:84:
                    97:a3:d6:be:ad:68:85:ec:f5:9c:8d:b4:e7:57:03:
                    a3:8a:f7:b2:e9:fa:85:e1:39:db:8e:c3:9c:8b:ea:
                    90:18:bc:ac:cb:94:19:70:64:90:3b:31:17:a5:a0:
                    99:ed:8e:69:50:b9:6a:23:b5:96:17:1c:da:ae:f4:
                    0c:ef:ae:2c:21:cb:aa:72:da:47:df:c5:c8:bf:f2:
                    47:be:54:e7:d4:10:5b:28:5b:45:8d:13:a7:07:82:
                    2e:9e:23:23:77:7d:99:0c:74:3c:ce:40:de:34:5d:
                    17:67:1e:9a:41:07:61:d5:7e:48:3f:91:2b:f2:32:
                    d0:bd:0a:12:9c:0e:a2:c6:fd:a6:84:b1:f6:71:71:
                    7c:14:0b:ab:e5:c8:fd:a7:89:9a:31:ce:77:6b:64:
                    e6:d9:5e:6a:82:d8:09:a4:24:d8:f0:7c:29:3f:41:
                    71:6a:17:3f:3e:7c:41:89:35:2b:c6:2b:1f:48:55:
                    76:c7
                Exponent: 65537 (0x10001)
        X509v3 extensions:
            X509v3 Key Usage: critical
                Certificate Sign, CRL Sign
            X509v3 Basic Constraints: critical
                CA:TRUE, pathlen:0
            X509v3 Subject Key Identifier: 
                59:B5:C0:44:7C:E6:1F:A1:6A:21:B2:F3:D1:03:E7:78:AF:2A:26:F8
            X509v3 Authority Key Identifier: 
                keyid:D9:4C:CA:9E:81:7E:95:7B:FF:37:B8:4B:82:8F:8A:5F:F3:C4:D9:BB

    Signature Algorithm: sha1WithRSAEncryption
         05:68:92:8b:f6:12:cf:76:62:95:6e:65:cf:27:ae:28:a0:8c:
         63:62:52:ee:74:98:97:58:26:91:f6:03:44:59:eb:2e:20:ec:
         55:00:8b:a7:ab:73:ae:26:bf:22:4d:f9:0d:cd:38:c8:84:72:
         a0:11:91:fa:bf:59:1a:95:8f:4e:b0:68:db:c1:ac:b2:41:55:
         db:74:b7:91:38:80:c5:ff:17:4c:81:23:e0:75:31:f1:57:74:
         03:2c:1e:f3:48:d3:26:cf:2e:27:b6:65:a4:c3:05:1b:ae:f5:
         51:f0:cd:e8:96:22:c8:81:c5:ed:bb:89:17:f9:92:67:60:4b:
         94:34:e3:28:a4:36:7f:04:a5:86:65:79:f6:fa:c9:43:08:20:
         11:51:e6:c5:80:08:62:f2:b5:f4:fd:4f:e4:eb:d1:bb:aa:cf:
         3f:2d:5f:62:2a:71:4d:33:af:f6:e8:5f:a5:59:cd:9e:ca:28:
         1d:87:b8:2b:3c:91:63:73:6e:ec:36:f0:25:4f:fd:83:39:3e:
         b8:79:20:40:e4:3b:2c:5e:6a:bb:7f:7e:53:93:20:d2:85:73:
         6b:6c:fa:35:a7:68:c9:21:f9:99:fa:ad:c1:69:90:27:f9:f7:
         3b:96:e6:6c:c7:01:1c:32:89:6d:39:bd:72:1c:b6:9f:ce:b3:
         91:6b:f8:4f
-----BEGIN CERTIFICATE-----
MIIDzjCCAragAwIBAgIBAjANBgkqhkiG9w0BAQUFADBzMRMwEQYKCZImiZPyLGQB
GRYDY29tMRowGAYKCZImiZPyLGQBGRYKZGVtb2RvbWFpbjEVMBMGA1UECgwMQ0Eg
RGVtbyBDb3JwMRcwFQYDVQQLDA5kZWNlbWJlcl8yMDIxYzEQMA4GA1UEAwwHQ0Eg
RGVtbzAeFw0yMjAyMjEyMDA2NDVaFw0zMjAyMjIyMDA2NDVaMHoxEzARBgoJkiaJ
k/IsZAEZFgNjb20xGjAYBgoJkiaJk/IsZAEZFgpkZW1vZG9tYWluMRUwEwYDVQQK
DAxDQSBEZW1vIENvcnAxFzAVBgNVBAsMDmRlY2VtYmVyXzIwMjFjMRcwFQYDVQQD
DA5TZXJ2ZXIgQ0EgRGVtbzCCASIwDQYJKoZIhvcNAQEBBQADggEPADCCAQoCggEB
AKlinLuPEcWiOiTDa5BYt5V4Ojz1FmqJQMT7fXGDx5qL0QNwuoW/7Jl/aMll0OUa
vBwdNqg0x37MYEjney+f2ZHIJc0ZXJvF8NeEl6PWvq1ohez1nI2051cDo4r3sun6
heE5247DnIvqkBi8rMuUGXBkkDsxF6Wgme2OaVC5aiO1lhcc2q70DO+uLCHLqnLa
R9/FyL/yR75U59QQWyhbRY0TpweCLp4jI3d9mQx0PM5A3jRdF2cemkEHYdV+SD+R
K/Iy0L0KEpwOosb9poSx9nFxfBQLq+XI/aeJmjHOd2tk5tleaoLYCaQk2PB8KT9B
cWoXPz58QYk1K8YrH0hVdscCAwEAAaNmMGQwDgYDVR0PAQH/BAQDAgEGMBIGA1Ud
EwEB/wQIMAYBAf8CAQAwHQYDVR0OBBYEFFm1wER85h+haiGy89ED53ivKib4MB8G
A1UdIwQYMBaAFNlMyp6BfpV7/ze4S4KPil/zxNm7MA0GCSqGSIb3DQEBBQUAA4IB
AQAFaJKL9hLPdmKVbmXPJ64ooIxjYlLudJiXWCaR9gNEWesuIOxVAIunq3OuJr8i
TfkNzTjIhHKgEZH6v1kalY9OsGjbwayyQVXbdLeROIDF/xdMgSPgdTHxV3QDLB7z
SNMmzy4ntmWkwwUbrvVR8M3oliLIgcXtu4kX+ZJnYEuUNOMopDZ/BKWGZXn2+slD
CCARUebFgAhi8rX0/U/k69G7qs8/LV9iKnFNM6/26F+lWc2eyigdh7grPJFjc27s
NvAlT/2DOT64eSBA5DssXmq7f35TkyDShXNrbPo1p2jJIfmZ+q3BaZAn+fc7luZs
xwEcMoltOb1yHLafzrORa/hP
-----END CERTIFICATE-----
